target datalayout = "e-m:e-p270:32:32-p271:32:32-p272:64:64-i64:64-i128:128-f80:128-n8:16:32:64-S128"
target triple = "x86_64-pc-linux-gnu"

%struct.UTrie2 = type { ptr, ptr, ptr, i32, i32, i16, i16, i32, i32, i32, i32, ptr, i32, i8, i8, i16, ptr }
%struct.USetAdder = type { ptr, ptr, ptr, ptr, ptr, ptr }

@_ZL9propsTrie = internal constant %struct.UTrie2 { ptr @_ZL15propsTrie_index, ptr getelementptr (i8, ptr @_ZL15propsTrie_index, i64 9496), ptr null, i32 4748, i32 19048, i16 2624, i16 4876, i32 0, i32 0, i32 1114112, i32 23792, ptr null, i32 0, i8 0, i8 0, i16 0, ptr null }, align 8

; Function Attrs: inlinehint mustprogress nounwind uwtable
define internal noundef signext i8 @_ZL9U_FAILURE10UErrorCode(i32 noundef %0) #5 {
  %2 = alloca i32, align 4
  store i32 %0, ptr %2, align 4, !tbaa !26
  %3 = load i32, ptr %2, align 4, !tbaa !26
  %4 = icmp sgt i32 %3, 0
  %5 = zext i1 %4 to i8
  ret i8 %5
}

; Function Attrs: mustprogress uwtable
define void @uchar_addPropertyStarts_77(ptr noundef %0, ptr noundef %1) #2 {
  %3 = alloca ptr, align 8
  %4 = alloca ptr, align 8
  store ptr %0, ptr %3, align 8, !tbaa !33
  store ptr %1, ptr %4, align 8, !tbaa !15
  %5 = load ptr, ptr %4, align 8, !tbaa !15
  %6 = load i32, ptr %5, align 4, !tbaa !26
  %7 = call noundef signext i8 @_ZL9U_FAILURE10UErrorCode(i32 noundef %6)
  %8 = icmp ne i8 %7, 0
  br i1 %8, label %9, label %10

9:                                                ; preds = %2
  br label %246

10:                                               ; preds = %2
  %11 = load ptr, ptr %3, align 8, !tbaa !33
  call void @utrie2_enum_77(ptr noundef @_ZL9propsTrie, ptr noundef null, ptr noundef @_ZL24_enumPropertyStartsRangePKviij, ptr noundef %11)
  %12 = load ptr, ptr %3, align 8, !tbaa !33
  %13 = getelementptr inbounds nuw %struct.USetAdder, ptr %12, i32 0, i32 1
  %14 = load ptr, ptr %13, align 8, !tbaa !35
  %15 = load ptr, ptr %3, align 8, !tbaa !33
  %16 = getelementptr inbounds nuw %struct.USetAdder, ptr %15, i32 0, i32 0
  %17 = load ptr, ptr %16, align 8, !tbaa !38
  call void %14(ptr noundef %17, i32 noundef 9)
  %18 = load ptr, ptr %3, align 8, !tbaa !33
  %19 = getelementptr inbounds nuw %struct.USetAdder, ptr %18, i32 0, i32 1
  %20 = load ptr, ptr %19, align 8, !tbaa !35
  %21 = load ptr, ptr %3, align 8, !tbaa !33
  %22 = getelementptr inbounds nuw %struct.USetAdder, ptr %21, i32 0, i32 0
  %23 = load ptr, ptr %22, align 8, !tbaa !38
  call void %20(ptr noundef %23, i32 noundef 10)
  %24 = load ptr, ptr %3, align 8, !tbaa !33
  %25 = getelementptr inbounds nuw %struct.USetAdder, ptr %24, i32 0, i32 1
  %26 = load ptr, ptr %25, align 8, !tbaa !35
  %27 = load ptr, ptr %3, align 8, !tbaa !33
  %28 = getelementptr inbounds nuw %struct.USetAdder, ptr %27, i32 0, i32 0
  %29 = load ptr, ptr %28, align 8, !tbaa !38
  call void %26(ptr noundef %29, i32 noundef 14)
  %30 = load ptr, ptr %3, align 8, !tbaa !33
  %31 = getelementptr inbounds nuw %struct.USetAdder, ptr %30, i32 0, i32 1
  %32 = load ptr, ptr %31, align 8, !tbaa !35
  %33 = load ptr, ptr %3, align 8, !tbaa !33
  %34 = getelementptr inbounds nuw %struct.USetAdder, ptr %33, i32 0, i32 0
  %35 = load ptr, ptr %34, align 8, !tbaa !38
  call void %32(ptr noundef %35, i32 noundef 28)
  %36 = load ptr, ptr %3, align 8, !tbaa !33
  %37 = getelementptr inbounds nuw %struct.USetAdder, ptr %36, i32 0, i32 1
  %38 = load ptr, ptr %37, align 8, !tbaa !35
  %39 = load ptr, ptr %3, align 8, !tbaa !33
  %40 = getelementptr inbounds nuw %struct.USetAdder, ptr %39, i32 0, i32 0
  %41 = load ptr, ptr %40, align 8, !tbaa !38
  call void %38(ptr noundef %41, i32 noundef 32)
  %42 = load ptr, ptr %3, align 8, !tbaa !33
  %43 = getelementptr inbounds nuw %struct.USetAdder, ptr %42, i32 0, i32 1
  %44 = load ptr, ptr %43, align 8, !tbaa !35
  %45 = load ptr, ptr %3, align 8, !tbaa !33
  %46 = getelementptr inbounds nuw %struct.USetAdder, ptr %45, i32 0, i32 0
  %47 = load ptr, ptr %46, align 8, !tbaa !38
  call void %44(ptr noundef %47, i32 noundef 133)
  %48 = load ptr, ptr %3, align 8, !tbaa !33
  %49 = getelementptr inbounds nuw %struct.USetAdder, ptr %48, i32 0, i32 1
  %50 = load ptr, ptr %49, align 8, !tbaa !35
  %51 = load ptr, ptr %3, align 8, !tbaa !33
  %52 = getelementptr inbounds nuw %struct.USetAdder, ptr %51, i32 0, i32 0
  %53 = load ptr, ptr %52, align 8, !tbaa !38
  call void %50(ptr noundef %53, i32 noundef 134)
  %54 = load ptr, ptr %3, align 8, !tbaa !33
  %55 = getelementptr inbounds nuw %struct.USetAdder, ptr %54, i32 0, i32 1
  %56 = load ptr, ptr %55, align 8, !tbaa !35
  %57 = load ptr, ptr %3, align 8, !tbaa !33
  %58 = getelementptr inbounds nuw %struct.USetAdder, ptr %57, i32 0, i32 0
  %59 = load ptr, ptr %58, align 8, !tbaa !38
  call void %56(ptr noundef %59, i32 noundef 127)
  %60 = load ptr, ptr %3, align 8, !tbaa !33
  %61 = getelementptr inbounds nuw %struct.USetAdder, ptr %60, i32 0, i32 1
  %62 = load ptr, ptr %61, align 8, !tbaa !35
  %63 = load ptr, ptr %3, align 8, !tbaa !33
  %64 = getelementptr inbounds nuw %struct.USetAdder, ptr %63, i32 0, i32 0
  %65 = load ptr, ptr %64, align 8, !tbaa !38
  call void %62(ptr noundef %65, i32 noundef 8202)
  %66 = load ptr, ptr %3, align 8, !tbaa !33
  %67 = getelementptr inbounds nuw %struct.USetAdder, ptr %66, i32 0, i32 1
  %68 = load ptr, ptr %67, align 8, !tbaa !35
  %69 = load ptr, ptr %3, align 8, !tbaa !33
  %70 = getelementptr inbounds nuw %struct.USetAdder, ptr %69, i32 0, i32 0
  %71 = load ptr, ptr %70, align 8, !tbaa !38
  call void %68(ptr noundef %71, i32 noundef 8208)
  %72 = load ptr, ptr %3, align 8, !tbaa !33
  %73 = getelementptr inbounds nuw %struct.USetAdder, ptr %72, i32 0, i32 1
  %74 = load ptr, ptr %73, align 8, !tbaa !35
  %75 = load ptr, ptr %3, align 8, !tbaa !33
  %76 = getelementptr inbounds nuw %struct.USetAdder, ptr %75, i32 0, i32 0
  %77 = load ptr, ptr %76, align 8, !tbaa !38
  call void %74(ptr noundef %77, i32 noundef 8298)
  %78 = load ptr, ptr %3, align 8, !tbaa !33
  %79 = getelementptr inbounds nuw %struct.USetAdder, ptr %78, i32 0, i32 1
  %80 = load ptr, ptr %79, align 8, !tbaa !35
  %81 = load ptr, ptr %3, align 8, !tbaa !33
  %82 = getelementptr inbounds nuw %struct.USetAdder, ptr %81, i32 0, i32 0
  %83 = load ptr, ptr %82, align 8, !tbaa !38
  call void %80(ptr noundef %83, i32 noundef 8304)
  %84 = load ptr, ptr %3, align 8, !tbaa !33
  %85 = getelementptr inbounds nuw %struct.USetAdder, ptr %84, i32 0, i32 1
  %86 = load ptr, ptr %85, align 8, !tbaa !35
  %87 = load ptr, ptr %3, align 8, !tbaa !33
  %88 = getelementptr inbounds nuw %struct.USetAdder, ptr %87, i32 0, i32 0
  %89 = load ptr, ptr %88, align 8, !tbaa !38
  call void %86(ptr noundef %89, i32 noundef 65279)
  %90 = load ptr, ptr %3, align 8, !tbaa !33
  %91 = getelementptr inbounds nuw %struct.USetAdder, ptr %90, i32 0, i32 1
  %92 = load ptr, ptr %91, align 8, !tbaa !35
  %93 = load ptr, ptr %3, align 8, !tbaa !33
  %94 = getelementptr inbounds nuw %struct.USetAdder, ptr %93, i32 0, i32 0
  %95 = load ptr, ptr %94, align 8, !tbaa !38
  call void %92(ptr noundef %95, i32 noundef 65280)
  %96 = load ptr, ptr %3, align 8, !tbaa !33
  %97 = getelementptr inbounds nuw %struct.USetAdder, ptr %96, i32 0, i32 1
  %98 = load ptr, ptr %97, align 8, !tbaa !35
  %99 = load ptr, ptr %3, align 8, !tbaa !33
  %100 = getelementptr inbounds nuw %struct.USetAdder, ptr %99, i32 0, i32 0
  %101 = load ptr, ptr %100, align 8, !tbaa !38
  call void %98(ptr noundef %101, i32 noundef 160)
  %102 = load ptr, ptr %3, align 8, !tbaa !33
  %103 = getelementptr inbounds nuw %struct.USetAdder, ptr %102, i32 0, i32 1
  %104 = load ptr, ptr %103, align 8, !tbaa !35
  %105 = load ptr, ptr %3, align 8, !tbaa !33
  %106 = getelementptr inbounds nuw %struct.USetAdder, ptr %105, i32 0, i32 0
  %107 = load ptr, ptr %106, align 8, !tbaa !38
  call void %104(ptr noundef %107, i32 noundef 161)
  %108 = load ptr, ptr %3, align 8, !tbaa !33
  %109 = getelementptr inbounds nuw %struct.USetAdder, ptr %108, i32 0, i32 1
  %110 = load ptr, ptr %109, align 8, !tbaa !35
  %111 = load ptr, ptr %3, align 8, !tbaa !33
  %112 = getelementptr inbounds nuw %struct.USetAdder, ptr %111, i32 0, i32 0
  %113 = load ptr, ptr %112, align 8, !tbaa !38
  call void %110(ptr noundef %113, i32 noundef 8199)
  %114 = load ptr, ptr %3, align 8, !tbaa !33
  %115 = getelementptr inbounds nuw %struct.USetAdder, ptr %114, i32 0, i32 1
  %116 = load ptr, ptr %115, align 8, !tbaa !35
  %117 = load ptr, ptr %3, align 8, !tbaa !33
  %118 = getelementptr inbounds nuw %struct.USetAdder, ptr %117, i32 0, i32 0
  %119 = load ptr, ptr %118, align 8, !tbaa !38
  call void %116(ptr noundef %119, i32 noundef 8200)
  %120 = load ptr, ptr %3, align 8, !tbaa !33
  %121 = getelementptr inbounds nuw %struct.USetAdder, ptr %120, i32 0, i32 1
  %122 = load ptr, ptr %121, align 8, !tbaa !35
  %123 = load ptr, ptr %3, align 8, !tbaa !33
  %124 = getelementptr inbounds nuw %struct.USetAdder, ptr %123, i32 0, i32 0
  %125 = load ptr, ptr %124, align 8, !tbaa !38
  call void %122(ptr noundef %125, i32 noundef 8239)
  %126 = load ptr, ptr %3, align 8, !tbaa !33
  %127 = getelementptr inbounds nuw %struct.USetAdder, ptr %126, i32 0, i32 1
  %128 = load ptr, ptr %127, align 8, !tbaa !35
  %129 = load ptr, ptr %3, align 8, !tbaa !33
  %130 = getelementptr inbounds nuw %struct.USetAdder, ptr %129, i32 0, i32 0
  %131 = load ptr, ptr %130, align 8, !tbaa !38
  call void %128(ptr noundef %131, i32 noundef 8240)
  %132 = load ptr, ptr %3, align 8, !tbaa !33
  %133 = getelementptr inbounds nuw %struct.USetAdder, ptr %132, i32 0, i32 1
  %134 = load ptr, ptr %133, align 8, !tbaa !35
  %135 = load ptr, ptr %3, align 8, !tbaa !33
  %136 = getelementptr inbounds nuw %struct.USetAdder, ptr %135, i32 0, i32 0
  %137 = load ptr, ptr %136, align 8, !tbaa !38
  call void %134(ptr noundef %137, i32 noundef 97)
  %138 = load ptr, ptr %3, align 8, !tbaa !33
  %139 = getelementptr inbounds nuw %struct.USetAdder, ptr %138, i32 0, i32 1
  %140 = load ptr, ptr %139, align 8, !tbaa !35
  %141 = load ptr, ptr %3, align 8, !tbaa !33
  %142 = getelementptr inbounds nuw %struct.USetAdder, ptr %141, i32 0, i32 0
  %143 = load ptr, ptr %142, align 8, !tbaa !38
  call void %140(ptr noundef %143, i32 noundef 123)
  %144 = load ptr, ptr %3, align 8, !tbaa !33
  %145 = getelementptr inbounds nuw %struct.USetAdder, ptr %144, i32 0, i32 1
  %146 = load ptr, ptr %145, align 8, !tbaa !35
  %147 = load ptr, ptr %3, align 8, !tbaa !33
  %148 = getelementptr inbounds nuw %struct.USetAdder, ptr %147, i32 0, i32 0
  %149 = load ptr, ptr %148, align 8, !tbaa !38
  call void %146(ptr noundef %149, i32 noundef 65)
  %150 = load ptr, ptr %3, align 8, !tbaa !33
  %151 = getelementptr inbounds nuw %struct.USetAdder, ptr %150, i32 0, i32 1
  %152 = load ptr, ptr %151, align 8, !tbaa !35
  %153 = load ptr, ptr %3, align 8, !tbaa !33
  %154 = getelementptr inbounds nuw %struct.USetAdder, ptr %153, i32 0, i32 0
  %155 = load ptr, ptr %154, align 8, !tbaa !38
  call void %152(ptr noundef %155, i32 noundef 91)
  %156 = load ptr, ptr %3, align 8, !tbaa !33
  %157 = getelementptr inbounds nuw %struct.USetAdder, ptr %156, i32 0, i32 1
  %158 = load ptr, ptr %157, align 8, !tbaa !35
  %159 = load ptr, ptr %3, align 8, !tbaa !33
  %160 = getelementptr inbounds nuw %struct.USetAdder, ptr %159, i32 0, i32 0
  %161 = load ptr, ptr %160, align 8, !tbaa !38
  call void %158(ptr noundef %161, i32 noundef 65345)
  %162 = load ptr, ptr %3, align 8, !tbaa !33
  %163 = getelementptr inbounds nuw %struct.USetAdder, ptr %162, i32 0, i32 1
  %164 = load ptr, ptr %163, align 8, !tbaa !35
  %165 = load ptr, ptr %3, align 8, !tbaa !33
  %166 = getelementptr inbounds nuw %struct.USetAdder, ptr %165, i32 0, i32 0
  %167 = load ptr, ptr %166, align 8, !tbaa !38
  call void %164(ptr noundef %167, i32 noundef 65371)
  %168 = load ptr, ptr %3, align 8, !tbaa !33
  %169 = getelementptr inbounds nuw %struct.USetAdder, ptr %168, i32 0, i32 1
  %170 = load ptr, ptr %169, align 8, !tbaa !35
  %171 = load ptr, ptr %3, align 8, !tbaa !33
  %172 = getelementptr inbounds nuw %struct.USetAdder, ptr %171, i32 0, i32 0
  %173 = load ptr, ptr %172, align 8, !tbaa !38
  call void %170(ptr noundef %173, i32 noundef 65313)
  %174 = load ptr, ptr %3, align 8, !tbaa !33
  %175 = getelementptr inbounds nuw %struct.USetAdder, ptr %174, i32 0, i32 1
  %176 = load ptr, ptr %175, align 8, !tbaa !35
  %177 = load ptr, ptr %3, align 8, !tbaa !33
  %178 = getelementptr inbounds nuw %struct.USetAdder, ptr %177, i32 0, i32 0
  %179 = load ptr, ptr %178, align 8, !tbaa !38
  call void %176(ptr noundef %179, i32 noundef 65339)
  %180 = load ptr, ptr %3, align 8, !tbaa !33
  %181 = getelementptr inbounds nuw %struct.USetAdder, ptr %180, i32 0, i32 1
  %182 = load ptr, ptr %181, align 8, !tbaa !35
  %183 = load ptr, ptr %3, align 8, !tbaa !33
  %184 = getelementptr inbounds nuw %struct.USetAdder, ptr %183, i32 0, i32 0
  %185 = load ptr, ptr %184, align 8, !tbaa !38
  call void %182(ptr noundef %185, i32 noundef 103)
  %186 = load ptr, ptr %3, align 8, !tbaa !33
  %187 = getelementptr inbounds nuw %struct.USetAdder, ptr %186, i32 0, i32 1
  %188 = load ptr, ptr %187, align 8, !tbaa !35
  %189 = load ptr, ptr %3, align 8, !tbaa !33
  %190 = getelementptr inbounds nuw %struct.USetAdder, ptr %189, i32 0, i32 0
  %191 = load ptr, ptr %190, align 8, !tbaa !38
  call void %188(ptr noundef %191, i32 noundef 71)
  %192 = load ptr, ptr %3, align 8, !tbaa !33
  %193 = getelementptr inbounds nuw %struct.USetAdder, ptr %192, i32 0, i32 1
  %194 = load ptr, ptr %193, align 8, !tbaa !35
  %195 = load ptr, ptr %3, align 8, !tbaa !33
  %196 = getelementptr inbounds nuw %struct.USetAdder, ptr %195, i32 0, i32 0
  %197 = load ptr, ptr %196, align 8, !tbaa !38
  call void %194(ptr noundef %197, i32 noundef 65351)
  %198 = load ptr, ptr %3, align 8, !tbaa !33
  %199 = getelementptr inbounds nuw %struct.USetAdder, ptr %198, i32 0, i32 1
  %200 = load ptr, ptr %199, align 8, !tbaa !35
  %201 = load ptr, ptr %3, align 8, !tbaa !33
  %202 = getelementptr inbounds nuw %struct.USetAdder, ptr %201, i32 0, i32 0
  %203 = load ptr, ptr %202, align 8, !tbaa !38
  call void %200(ptr noundef %203, i32 noundef 65319)
  %204 = load ptr, ptr %3, align 8, !tbaa !33
  %205 = getelementptr inbounds nuw %struct.USetAdder, ptr %204, i32 0, i32 1
  %206 = load ptr, ptr %205, align 8, !tbaa !35
  %207 = load ptr, ptr %3, align 8, !tbaa !33
  %208 = getelementptr inbounds nuw %struct.USetAdder, ptr %207, i32 0, i32 0
  %209 = load ptr, ptr %208, align 8, !tbaa !38
  call void %206(ptr noundef %209, i32 noundef 8288)
  %210 = load ptr, ptr %3, align 8, !tbaa !33
  %211 = getelementptr inbounds nuw %struct.USetAdder, ptr %210, i32 0, i32 1
  %212 = load ptr, ptr %211, align 8, !tbaa !35
  %213 = load ptr, ptr %3, align 8, !tbaa !33
  %214 = getelementptr inbounds nuw %struct.USetAdder, ptr %213, i32 0, i32 0
  %215 = load ptr, ptr %214, align 8, !tbaa !38
  call void %212(ptr noundef %215, i32 noundef 65520)
  %216 = load ptr, ptr %3, align 8, !tbaa !33
  %217 = getelementptr inbounds nuw %struct.USetAdder, ptr %216, i32 0, i32 1
  %218 = load ptr, ptr %217, align 8, !tbaa !35
  %219 = load ptr, ptr %3, align 8, !tbaa !33
  %220 = getelementptr inbounds nuw %struct.USetAdder, ptr %219, i32 0, i32 0
  %221 = load ptr, ptr %220, align 8, !tbaa !38
  call void %218(ptr noundef %221, i32 noundef 65532)
  %222 = load ptr, ptr %3, align 8, !tbaa !33
  %223 = getelementptr inbounds nuw %struct.USetAdder, ptr %222, i32 0, i32 1
  %224 = load ptr, ptr %223, align 8, !tbaa !35
  %225 = load ptr, ptr %3, align 8, !tbaa !33
  %226 = getelementptr inbounds nuw %struct.USetAdder, ptr %225, i32 0, i32 0
  %227 = load ptr, ptr %226, align 8, !tbaa !38
  call void %224(ptr noundef %227, i32 noundef 917504)
  %228 = load ptr, ptr %3, align 8, !tbaa !33
  %229 = getelementptr inbounds nuw %struct.USetAdder, ptr %228, i32 0, i32 1
  %230 = load ptr, ptr %229, align 8, !tbaa !35
  %231 = load ptr, ptr %3, align 8, !tbaa !33
  %232 = getelementptr inbounds nuw %struct.USetAdder, ptr %231, i32 0, i32 0
  %233 = load ptr, ptr %232, align 8, !tbaa !38
  call void %230(ptr noundef %233, i32 noundef 921600)
  %234 = load ptr, ptr %3, align 8, !tbaa !33
  %235 = getelementptr inbounds nuw %struct.USetAdder, ptr %234, i32 0, i32 1
  %236 = load ptr, ptr %235, align 8, !tbaa !35
  %237 = load ptr, ptr %3, align 8, !tbaa !33
  %238 = getelementptr inbounds nuw %struct.USetAdder, ptr %237, i32 0, i32 0
  %239 = load ptr, ptr %238, align 8, !tbaa !38
  call void %236(ptr noundef %239, i32 noundef 847)
  %240 = load ptr, ptr %3, align 8, !tbaa !33
  %241 = getelementptr inbounds nuw %struct.USetAdder, ptr %240, i32 0, i32 1
  %242 = load ptr, ptr %241, align 8, !tbaa !35
  %243 = load ptr, ptr %3, align 8, !tbaa !33
  %244 = getelementptr inbounds nuw %struct.USetAdder, ptr %243, i32 0, i32 0
  %245 = load ptr, ptr %244, align 8, !tbaa !38
  call void %242(ptr noundef %245, i32 noundef 848)
  br label %246

246:                                              ; preds = %10, %9
  ret void
}