; Function Attrs: mustprogress uwtable
define void @uchar_addPropertyStarts_77(ptr noundef %0, ptr noundef readonly captures(none) %1) local_unnamed_addr #2 {
  %3 = load i32, ptr %1, align 4, !tbaa !16
  %4 = icmp slt i32 %3, 1
  br i1 %4, label %5, label %85

5:                                                ; preds = %2
  tail call void @utrie2_enum_77(ptr noundef nonnull @_ZL9propsTrie, ptr noundef null, ptr noundef nonnull @_ZL24_enumPropertyStartsRangePKviij, ptr noundef %0)
  %6 = getelementptr inbounds nuw i8, ptr %0, i64 8
  %7 = load ptr, ptr %6, align 8, !tbaa !22
  %8 = load ptr, ptr %0, align 8, !tbaa !25
  tail call void %7(ptr noundef %8, i32 noundef 9)
  %9 = load ptr, ptr %6, align 8, !tbaa !22
  %10 = load ptr, ptr %0, align 8, !tbaa !25
  tail call void %9(ptr noundef %10, i32 noundef 10)
  %11 = load ptr, ptr %6, align 8, !tbaa !22
  %12 = load ptr, ptr %0, align 8, !tbaa !25
  tail call void %11(ptr noundef %12, i32 noundef 14)
  %13 = load ptr, ptr %6, align 8, !tbaa !22
  %14 = load ptr, ptr %0, align 8, !tbaa !25
  tail call void %13(ptr noundef %14, i32 noundef 28)
  %15 = load ptr, ptr %6, align 8, !tbaa !22
  %16 = load ptr, ptr %0, align 8, !tbaa !25
  tail call void %15(ptr noundef %16, i32 noundef 32)
  %17 = load ptr, ptr %6, align 8, !tbaa !22
  %18 = load ptr, ptr %0, align 8, !tbaa !25
  tail call void %17(ptr noundef %18, i32 noundef 133)
  %19 = load ptr, ptr %6, align 8, !tbaa !22
  %20 = load ptr, ptr %0, align 8, !tbaa !25
  tail call void %19(ptr noundef %20, i32 noundef 134)
  %21 = load ptr, ptr %6, align 8, !tbaa !22
  %22 = load ptr, ptr %0, align 8, !tbaa !25
  tail call void %21(ptr noundef %22, i32 noundef 127)
  %23 = load ptr, ptr %6, align 8, !tbaa !22
  %24 = load ptr, ptr %0, align 8, !tbaa !25
  tail call void %23(ptr noundef %24, i32 noundef 8202)
  %25 = load ptr, ptr %6, align 8, !tbaa !22
  %26 = load ptr, ptr %0, align 8, !tbaa !25
  tail call void %25(ptr noundef %26, i32 noundef 8208)
  %27 = load ptr, ptr %6, align 8, !tbaa !22
  %28 = load ptr, ptr %0, align 8, !tbaa !25
  tail call void %27(ptr noundef %28, i32 noundef 8298)
  %29 = load ptr, ptr %6, align 8, !tbaa !22
  %30 = load ptr, ptr %0, align 8, !tbaa !25
  tail call void %29(ptr noundef %30, i32 noundef 8304)
  %31 = load ptr, ptr %6, align 8, !tbaa !22
  %32 = load ptr, ptr %0, align 8, !tbaa !25
  tail call void %31(ptr noundef %32, i32 noundef 65279)
  %33 = load ptr, ptr %6, align 8, !tbaa !22
  %34 = load ptr, ptr %0, align 8, !tbaa !25
  tail call void %33(ptr noundef %34, i32 noundef 65280)
  %35 = load ptr, ptr %6, align 8, !tbaa !22
  %36 = load ptr, ptr %0, align 8, !tbaa !25
  tail call void %35(ptr noundef %36, i32 noundef 160)
  %37 = load ptr, ptr %6, align 8, !tbaa !22
  %38 = load ptr, ptr %0, align 8, !tbaa !25
  tail call void %37(ptr noundef %38, i32 noundef 161)
  %39 = load ptr, ptr %6, align 8, !tbaa !22
  %40 = load ptr, ptr %0, align 8, !tbaa !25
  tail call void %39(ptr noundef %40, i32 noundef 8199)
  %41 = load ptr, ptr %6, align 8, !tbaa !22
  %42 = load ptr, ptr %0, align 8, !tbaa !25
  tail call void %41(ptr noundef %42, i32 noundef 8200)
  %43 = load ptr, ptr %6, align 8, !tbaa !22
  %44 = load ptr, ptr %0, align 8, !tbaa !25
  tail call void %43(ptr noundef %44, i32 noundef 8239)
  %45 = load ptr, ptr %6, align 8, !tbaa !22
  %46 = load ptr, ptr %0, align 8, !tbaa !25
  tail call void %45(ptr noundef %46, i32 noundef 8240)
  %47 = load ptr, ptr %6, align 8, !tbaa !22
  %48 = load ptr, ptr %0, align 8, !tbaa !25
  tail call void %47(ptr noundef %48, i32 noundef 97)
  %49 = load ptr, ptr %6, align 8, !tbaa !22
  %50 = load ptr, ptr %0, align 8, !tbaa !25
  tail call void %49(ptr noundef %50, i32 noundef 123)
  %51 = load ptr, ptr %6, align 8, !tbaa !22
  %52 = load ptr, ptr %0, align 8, !tbaa !25
  tail call void %51(ptr noundef %52, i32 noundef 65)
  %53 = load ptr, ptr %6, align 8, !tbaa !22
  %54 = load ptr, ptr %0, align 8, !tbaa !25
  tail call void %53(ptr noundef %54, i32 noundef 91)
  %55 = load ptr, ptr %6, align 8, !tbaa !22
  %56 = load ptr, ptr %0, align 8, !tbaa !25
  tail call void %55(ptr noundef %56, i32 noundef 65345)
  %57 = load ptr, ptr %6, align 8, !tbaa !22
  %58 = load ptr, ptr %0, align 8, !tbaa !25
  tail call void %57(ptr noundef %58, i32 noundef 65371)
  %59 = load ptr, ptr %6, align 8, !tbaa !22
  %60 = load ptr, ptr %0, align 8, !tbaa !25
  tail call void %59(ptr noundef %60, i32 noundef 65313)
  %61 = load ptr, ptr %6, align 8, !tbaa !22
  %62 = load ptr, ptr %0, align 8, !tbaa !25
  tail call void %61(ptr noundef %62, i32 noundef 65339)
  %63 = load ptr, ptr %6, align 8, !tbaa !22
  %64 = load ptr, ptr %0, align 8, !tbaa !25
  tail call void %63(ptr noundef %64, i32 noundef 103)
  %65 = load ptr, ptr %6, align 8, !tbaa !22
  %66 = load ptr, ptr %0, align 8, !tbaa !25
  tail call void %65(ptr noundef %66, i32 noundef 71)
  %67 = load ptr, ptr %6, align 8, !tbaa !22
  %68 = load ptr, ptr %0, align 8, !tbaa !25
  tail call void %67(ptr noundef %68, i32 noundef 65351)
  %69 = load ptr, ptr %6, align 8, !tbaa !22
  %70 = load ptr, ptr %0, align 8, !tbaa !25
  tail call void %69(ptr noundef %70, i32 noundef 65319)
  %71 = load ptr, ptr %6, align 8, !tbaa !22
  %72 = load ptr, ptr %0, align 8, !tbaa !25
  tail call void %71(ptr noundef %72, i32 noundef 8288)
  %73 = load ptr, ptr %6, align 8, !tbaa !22
  %74 = load ptr, ptr %0, align 8, !tbaa !25
  tail call void %73(ptr noundef %74, i32 noundef 65520)
  %75 = load ptr, ptr %6, align 8, !tbaa !22
  %76 = load ptr, ptr %0, align 8, !tbaa !25
  tail call void %75(ptr noundef %76, i32 noundef 65532)
  %77 = load ptr, ptr %6, align 8, !tbaa !22
  %78 = load ptr, ptr %0, align 8, !tbaa !25
  tail call void %77(ptr noundef %78, i32 noundef 917504)
  %79 = load ptr, ptr %6, align 8, !tbaa !22
  %80 = load ptr, ptr %0, align 8, !tbaa !25
  tail call void %79(ptr noundef %80, i32 noundef 921600)
  %81 = load ptr, ptr %6, align 8, !tbaa !22
  %82 = load ptr, ptr %0, align 8, !tbaa !25
  tail call void %81(ptr noundef %82, i32 noundef 847)
  %83 = load ptr, ptr %6, align 8, !tbaa !22
  %84 = load ptr, ptr %0, align 8, !tbaa !25
  tail call void %83(ptr noundef %84, i32 noundef 848)
  br label %85

85:                                               ; preds = %2, %5
  ret void
}